Certificate:
    Data:
        Version: 3 (0x2)
        Serial Number:
            fd:ba:bc:71:6e:25:a3:78
    Signature Algorithm: sha256WithRSAEncryption
        Issuer: C=US, ST=North Carolina, L=Raleigh, O=Katello, OU=SomeOrgUnit, CN=centos7-devel2.samir.example.com
        Validity
            Not Before: May  7 14:21:50 2020 GMT
            Not After : Jan 18 14:21:50 2038 GMT
        Subject: C=US, ST=North Carolina, L=Raleigh, O=Katello, OU=SomeOrgUnit, CN=centos7-devel2.samir.example.com
        Subject Public Key Info:
            Public Key Algorithm: rsaEncryption
                Public-Key: (2048 bit)
                Modulus:
                    00:9f:d2:c1:10:ff:01:1a:33:19:0e:43:9d:83:e5:
                    8a:73:ba:2d:3c:66:b1:78:cd:89:8c:60:e5:81:a6:
                    e8:4d:96:5d:07:c3:be:a2:9c:c2:7c:94:2d:6e:43:
                    44:46:ef:fd:36:20:47:3b:d6:35:fd:97:cd:97:17:
                    d7:3f:e7:67:fe:a9:2a:f1:bc:47:87:6e:ed:6d:b6:
                    9e:f1:0d:63:53:c1:3f:fd:17:ab:5f:35:7a:84:cf:
                    6b:dd:a6:8e:09:99:56:39:de:29:6b:fb:c2:dc:8c:
                    56:2a:10:b3:0a:ca:b8:6c:fb:b8:c8:eb:e5:e2:ae:
                    d5:41:05:4c:a2:c0:be:7b:b0:6d:1d:7c:66:80:88:
                    5a:b7:07:9b:d3:b8:ff:93:f3:19:33:63:48:95:83:
                    34:27:c6:ac:cc:a0:0b:56:ab:22:34:71:4f:79:bf:
                    6e:4b:c9:89:59:87:8b:7b:35:79:b8:1c:70:ee:58:
                    e6:7b:22:79:a7:1e:d9:b2:57:3a:e0:59:8e:b3:6a:
                    97:3d:9a:80:cc:3b:d5:77:d4:fa:7a:58:69:b6:b3:
                    aa:95:54:55:9e:13:65:7f:95:c0:73:96:c5:fb:77:
                    a0:48:20:a6:7d:f4:c4:d3:e9:ab:94:93:4e:1a:e2:
                    5d:9b:c5:87:50:c7:56:f0:93:a8:b9:0a:73:cf:f7:
                    01:0f
                Exponent: 65537 (0x10001)
        X509v3 extensions:
            X509v3 Basic Constraints:
                CA:TRUE
            X509v3 Key Usage:
                Digital Signature, Key Encipherment, Certificate Sign, CRL Sign
            X509v3 Extended Key Usage:
                TLS Web Server Authentication, TLS Web Client Authentication
            Netscape Cert Type:
                SSL Server, SSL CA
            Netscape Comment:
                Katello SSL Tool Generated Certificate
            X509v3 Subject Key Identifier:
                9B:D2:D9:69:88:99:2C:2E:70:2B:B7:69:76:7A:7D:D1:85:4D:53:5D
            X509v3 Authority Key Identifier:
                keyid:9B:D2:D9:69:88:99:2C:2E:70:2B:B7:69:76:7A:7D:D1:85:4D:53:5D
                DirName:/C=US/ST=North Carolina/L=Raleigh/O=Katello/OU=SomeOrgUnit/CN=centos7-devel2.samir.example.com
                serial:FD:BA:BC:71:6E:25:A3:78

    Signature Algorithm: sha256WithRSAEncryption
         32:19:6c:c6:af:ae:c2:be:64:16:b0:7c:a3:4b:10:e8:5a:b4:
         17:74:fd:75:c6:26:d2:88:01:fe:95:2e:3f:0a:1e:88:a5:25:
         13:6b:60:34:d0:2c:de:d8:48:15:f5:cc:1f:07:80:2b:1d:28:
         90:e9:8b:47:c1:71:1a:da:86:a0:27:e8:c4:88:36:a3:ff:db:
         17:2f:0e:9b:e1:39:a7:1f:dc:26:97:29:5e:4b:99:60:fa:92:
         12:24:fc:bc:04:94:24:65:f3:60:cc:5e:ee:42:bf:9e:3c:31:
         b9:3c:99:8a:44:3d:29:5d:a6:99:aa:d5:0e:15:94:c4:c5:23:
         8c:b9:6e:e5:09:13:8c:56:4b:04:35:95:79:50:5c:22:2d:1f:
         3a:68:d0:f3:3e:88:7d:38:29:32:f2:47:b1:17:99:fd:a6:48:
         02:04:6b:9f:b9:da:c2:6e:65:9b:99:e4:60:7a:32:cd:02:fe:
         71:da:19:e3:93:bd:c5:a7:a0:46:9e:28:d2:91:ac:8e:91:c7:
         a7:51:4e:81:09:d1:f1:39:5b:07:87:41:3b:b7:e3:1b:a8:7e:
         51:52:4e:66:20:b1:cd:c5:ae:de:17:3a:d7:ce:07:37:d8:5e:
         88:ef:e3:94:c0:98:3e:c3:0d:51:44:3d:53:52:ff:5e:0b:1b:
         5b:6c:9b:a6
-----BEGIN CERTIFICATE-----
MIIFBzCCA++gAwIBAgIJAP26vHFuJaN4MA0GCSqGSIb3DQEBCwUAMIGLMQswCQYD
VQQGEwJVUzEXMBUGA1UECAwOTm9ydGggQ2Fyb2xpbmExEDAOBgNVBAcMB1JhbGVp
Z2gxEDAOBgNVBAoMB0thdGVsbG8xFDASBgNVBAsMC1NvbWVPcmdVbml0MSkwJwYD
VQQDDCBjZW50b3M3LWRldmVsMi5zYW1pci5leGFtcGxlLmNvbTAeFw0yMDA1MDcx
NDIxNTBaFw0zODAxMTgxNDIxNTBaMIGLMQswCQYDVQQGEwJVUzEXMBUGA1UECAwO
Tm9ydGggQ2Fyb2xpbmExEDAOBgNVBAcMB1JhbGVpZ2gxEDAOBgNVBAoMB0thdGVs
bG8xFDASBgNVBAsMC1NvbWVPcmdVbml0MSkwJwYDVQQDDCBjZW50b3M3LWRldmVs
Mi5zYW1pci5leGFtcGxlLmNvbTCCASIwDQYJKoZIhvcNAQEBBQADggEPADCCAQoC
ggEBAJ/SwRD/ARozGQ5DnYPlinO6LTxmsXjNiYxg5YGm6E2WXQfDvqKcwnyULW5D
REbv/TYgRzvWNf2XzZcX1z/nZ/6pKvG8R4du7W22nvENY1PBP/0Xq181eoTPa92m
jgmZVjneKWv7wtyMVioQswrKuGz7uMjr5eKu1UEFTKLAvnuwbR18ZoCIWrcHm9O4
/5PzGTNjSJWDNCfGrMygC1arIjRxT3m/bkvJiVmHi3s1ebgccO5Y5nsieace2bJX
OuBZjrNqlz2agMw71XfU+npYabazqpVUVZ4TZX+VwHOWxft3oEggpn30xNPpq5ST
ThriXZvFh1DHVvCTqLkKc8/3AQ8CAwEAAaOCAWowggFmMAwGA1UdEwQFMAMBAf8w
CwYDVR0PBAQDAgGmMB0GA1UdJQQWMBQGCCsGAQUFBwMBBggrBgEFBQcDAjARBglg
hkgBhvhCAQEEBAMCAkQwNQYJYIZIAYb4QgENBCgWJkthdGVsbG8gU1NMIFRvb2wg
R2VuZXJhdGVkIENlcnRpZmljYXRlMB0GA1UdDgQWBBSb0tlpiJksLnArt2l2en3R
hU1TXTCBwAYDVR0jBIG4MIG1gBSb0tlpiJksLnArt2l2en3RhU1TXaGBkaSBjjCB
izELMAkGA1UEBhMCVVMxFzAVBgNVBAgMDk5vcnRoIENhcm9saW5hMRAwDgYDVQQH
DAdSYWxlaWdoMRAwDgYDVQQKDAdLYXRlbGxvMRQwEgYDVQQLDAtTb21lT3JnVW5p
dDEpMCcGA1UEAwwgY2VudG9zNy1kZXZlbDIuc2FtaXIuZXhhbXBsZS5jb22CCQD9
urxxbiWjeDANBgkqhkiG9w0BAQsFAAOCAQEAMhlsxq+uwr5kFrB8o0sQ6Fq0F3T9
dcYm0ogB/pUuPwoeiKUlE2tgNNAs3thIFfXMHweAKx0okOmLR8FxGtqGoCfoxIg2
o//bFy8Om+E5px/cJpcpXkuZYPqSEiT8vASUJGXzYMxe7kK/njwxuTyZikQ9KV2m
marVDhWUxMUjjLlu5QkTjFZLBDWVeVBcIi0fOmjQ8z6IfTgpMvJHsReZ/aZIAgRr
n7nawm5lm5nkYHoyzQL+cdoZ45O9xaegRp4o0pGsjpHHp1FOgQnR8TlbB4dBO7fj
G6h+UVJOZiCxzcWu3hc6184HN9heiO/jlMCYPsMNUUQ9U1L/XgsbW2ybpg==
-----END CERTIFICATE-----
