Certificate:
    Data:
        Version: 3 (0x2)
        Serial Number: 14632745056346044481 (0xcb11f419e45bf841)
    Signature Algorithm: sha256WithRSAEncryption
        Issuer: C=US, ST=North Carolina, L=Raleigh, O=Katello, OU=SomeOrgUnit, CN=sausage.example.com
        Validity
            Not Before: Mar 21 01:42:10 2017 GMT
            Not After : Jan 18 01:42:10 2038 GMT
        Subject: C=US, ST=North Carolina, L=Raleigh, O=Katello, OU=SomeOrgUnit, CN=sausage.example.com
        Subject Public Key Info:
            Public Key Algorithm: rsaEncryption
                Public-Key: (2048 bit)
                Modulus:
                    00:b8:e1:84:32:02:73:89:b4:e5:6b:63:7b:b3:9a:
                    0a:d8:90:53:cc:50:ba:0b:c8:8b:f7:00:10:83:2b:
                    2f:e1:fb:21:a9:25:82:a2:46:fa:88:d9:53:9c:3b:
                    86:9a:69:c7:54:19:d8:95:07:8c:36:40:29:f1:ae:
                    ee:b5:21:f0:d9:ef:89:ce:1e:26:df:98:ee:9a:5c:
                    14:5e:0e:c9:8e:97:70:65:09:da:40:a4:c7:20:d6:
                    f2:ff:38:c3:f1:a7:f7:f6:26:33:72:75:8a:e7:ef:
                    4e:4e:ac:70:56:0e:f5:97:5c:be:f7:0e:98:b3:da:
                    df:ec:0e:f3:17:c1:32:ae:8a:f7:b5:9f:5a:0a:28:
                    bc:89:a8:0e:a2:22:a0:d1:fa:5e:d2:e0:fa:c8:f5:
                    d6:e2:86:a9:df:e4:68:37:c4:9b:b7:a5:d6:94:ef:
                    90:dd:0b:fa:38:84:db:1a:73:de:97:3f:c9:1b:10:
                    79:4f:d3:d4:e1:76:20:b3:20:1b:49:92:38:a3:fb:
                    f2:58:11:39:b0:a9:9c:db:5d:42:8f:30:82:b9:92:
                    5d:e5:f7:d7:34:f8:f1:01:eb:fa:60:3e:21:65:d8:
                    ec:f9:00:ff:2d:24:0c:01:90:7f:6c:46:22:41:69:
                    b8:af:65:8f:55:b8:00:7f:c6:09:42:70:49:84:ba:
                    d3:d5
                Exponent: 65537 (0x10001)
        X509v3 extensions:
            X509v3 Basic Constraints: 
                CA:TRUE
            X509v3 Key Usage: 
                Digital Signature, Key Encipherment, Certificate Sign, CRL Sign
            X509v3 Extended Key Usage: 
                TLS Web Server Authentication, TLS Web Client Authentication
            Netscape Cert Type: 
                SSL Server, SSL CA
            Netscape Comment: 
                Katello SSL Tool Generated Certificate
            X509v3 Subject Key Identifier: 
                80:16:DF:65:5B:7E:05:C9:58:25:B7:7B:D3:32:5C:7A:1D:76:37:EB
            X509v3 Authority Key Identifier: 
                keyid:80:16:DF:65:5B:7E:05:C9:58:25:B7:7B:D3:32:5C:7A:1D:76:37:EB
                DirName:/C=US/ST=North Carolina/L=Raleigh/O=Katello/OU=SomeOrgUnit/CN=sausage.example.com
                serial:CB:11:F4:19:E4:5B:F8:41

    Signature Algorithm: sha256WithRSAEncryption
         2d:d0:a2:c6:dd:96:c1:33:d8:82:67:8d:0d:57:47:fa:50:a2:
         f4:60:65:99:2f:89:72:b2:55:c6:28:38:3b:c7:68:ee:40:4f:
         45:a0:4b:f7:93:38:c3:56:43:de:10:55:03:0d:12:df:b9:aa:
         e2:35:f1:87:4d:21:e9:d5:8c:4d:cb:51:71:5d:51:b2:c4:ea:
         a4:26:30:d6:e2:9e:b8:45:89:6e:a4:f0:b0:4b:0f:6f:08:ce:
         f5:eb:cb:97:80:17:4f:7b:44:81:49:cd:66:f3:e5:54:5d:05:
         cf:53:12:48:b0:05:24:83:0f:20:c9:37:06:9c:ae:bb:20:97:
         d6:1a:dc:5f:a8:59:da:16:77:ce:c1:d5:ff:b5:c7:7c:5a:29:
         cb:e2:84:bf:e1:9b:0a:79:d0:68:b6:4a:b7:c7:5a:90:89:41:
         f4:8c:81:59:43:e8:24:a3:21:24:6d:8c:57:71:ae:7e:fe:c2:
         8b:55:85:22:9d:70:7c:46:2b:70:33:b3:f1:5a:f0:f4:b9:5f:
         b2:49:4d:82:3f:94:aa:64:db:a0:0b:9b:83:dc:13:da:80:2c:
         91:db:55:69:60:86:28:68:ac:dc:a2:e2:2f:70:48:ba:0d:0d:
         8f:66:6a:15:6d:90:e7:de:3f:7b:e0:71:f0:cf:7f:d2:97:4f:
         66:5d:3c:66
-----BEGIN CERTIFICATE-----
MIIE3TCCA8WgAwIBAgIJAMsR9BnkW/hBMA0GCSqGSIb3DQEBCwUAMH4xCzAJBgNV
BAYTAlVTMRcwFQYDVQQIEw5Ob3J0aCBDYXJvbGluYTEQMA4GA1UEBxMHUmFsZWln
aDEQMA4GA1UEChMHS2F0ZWxsbzEUMBIGA1UECxMLU29tZU9yZ1VuaXQxHDAaBgNV
BAMTE3NhdXNhZ2UuZXhhbXBsZS5jb20wHhcNMTcwMzIxMDE0MjEwWhcNMzgwMTE4
MDE0MjEwWjB+MQswCQYDVQQGEwJVUzEXMBUGA1UECBMOTm9ydGggQ2Fyb2xpbmEx
EDAOBgNVBAcTB1JhbGVpZ2gxEDAOBgNVBAoTB0thdGVsbG8xFDASBgNVBAsTC1Nv
bWVPcmdVbml0MRwwGgYDVQQDExNzYXVzYWdlLmV4YW1wbGUuY29tMIIBIjANBgkq
hkiG9w0BAQEFAAOCAQ8AMIIBCgKCAQEAuOGEMgJzibTla2N7s5oK2JBTzFC6C8iL
9wAQgysv4fshqSWCokb6iNlTnDuGmmnHVBnYlQeMNkAp8a7utSHw2e+Jzh4m35ju
mlwUXg7JjpdwZQnaQKTHINby/zjD8af39iYzcnWK5+9OTqxwVg71l1y+9w6Ys9rf
7A7zF8Eyror3tZ9aCii8iagOoiKg0fpe0uD6yPXW4oap3+RoN8Sbt6XWlO+Q3Qv6
OITbGnPelz/JGxB5T9PU4XYgsyAbSZI4o/vyWBE5sKmc211CjzCCuZJd5ffXNPjx
Aev6YD4hZdjs+QD/LSQMAZB/bEYiQWm4r2WPVbgAf8YJQnBJhLrT1QIDAQABo4IB
XDCCAVgwDAYDVR0TBAUwAwEB/zALBgNVHQ8EBAMCAaYwHQYDVR0lBBYwFAYIKwYB
BQUHAwEGCCsGAQUFBwMCMBEGCWCGSAGG+EIBAQQEAwICRDA1BglghkgBhvhCAQ0E
KBYmS2F0ZWxsbyBTU0wgVG9vbCBHZW5lcmF0ZWQgQ2VydGlmaWNhdGUwHQYDVR0O
BBYEFIAW32VbfgXJWCW3e9MyXHoddjfrMIGyBgNVHSMEgaowgaeAFIAW32VbfgXJ
WCW3e9MyXHoddjfroYGDpIGAMH4xCzAJBgNVBAYTAlVTMRcwFQYDVQQIEw5Ob3J0
aCBDYXJvbGluYTEQMA4GA1UEBxMHUmFsZWlnaDEQMA4GA1UEChMHS2F0ZWxsbzEU
MBIGA1UECxMLU29tZU9yZ1VuaXQxHDAaBgNVBAMTE3NhdXNhZ2UuZXhhbXBsZS5j
b22CCQDLEfQZ5Fv4QTANBgkqhkiG9w0BAQsFAAOCAQEALdCixt2WwTPYgmeNDVdH
+lCi9GBlmS+JcrJVxig4O8do7kBPRaBL95M4w1ZD3hBVAw0S37mq4jXxh00h6dWM
TctRcV1RssTqpCYw1uKeuEWJbqTwsEsPbwjO9evLl4AXT3tEgUnNZvPlVF0Fz1MS
SLAFJIMPIMk3BpyuuyCX1hrcX6hZ2hZ3zsHV/7XHfFopy+KEv+GbCnnQaLZKt8da
kIlB9IyBWUPoJKMhJG2MV3Gufv7Ci1WFIp1wfEYrcDOz8Vrw9LlfsklNgj+UqmTb
oAubg9wT2oAskdtVaWCGKGis3KLiL3BIug0Nj2ZqFW2Q594/e+Bx8M9/0pdPZl08
Zg==
-----END CERTIFICATE-----
